target datalayout = "e-m:e-p270:32:32-p271:32:32-p272:64:64-i64:64-i128:128-f80:128-n8:16:32:64-S128"
target triple = "x86_64-pc-linux-gnu"

%struct.XLogCtlData = type { %struct.XLogCtlInsert, %struct.XLogwrtRqst, i64, %struct.FullTransactionId, i64, i64, i64, %struct.pg_atomic_uint64, i64, i64, %struct.pg_atomic_uint64, %struct.pg_atomic_uint64, %struct.pg_atomic_uint64, i64, ptr, ptr, i32, i32, i32, i32, i8, i8, i64, i64, %struct.CheckPoint, i64, i8 }
%struct.XLogCtlInsert = type { i8, i64, i64, [128 x i8], i64, i8, i32, i64, ptr }
%struct.XLogwrtRqst = type { i64, i64 }
%struct.FullTransactionId = type { i64 }
%struct.pg_atomic_uint64 = type { i64 }
%struct.CheckPoint = type { i64, i32, i32, i8, i32, %struct.FullTransactionId, i32, i32, i32, i32, i32, i32, i32, i64, i32, i32, i32 }
%union.WALInsertLockPadded = type { %struct.WALInsertLock, [96 x i8] }
%struct.WALInsertLock = type { %struct.LWLock, %struct.pg_atomic_uint64, i64 }
%struct.LWLock = type { i16, %struct.pg_atomic_uint32, %struct.proclist_head }
%struct.pg_atomic_uint32 = type { i32 }
%struct.proclist_head = type { i32, i32 }

@XLogCtl = internal global ptr null, align 8
@.str.14 = private unnamed_addr constant [7 x i8] c"xlog.c\00", align 1
@holdingAllLocks = internal global i8 0, align 1
@MyLockNo = internal global i32 0, align 4
@WALInsertLocks = internal global ptr null, align 8
@sessionBackupState = internal global i32 0, align 4
@.str.101 = private unnamed_addr constant [72 x i8] c"aborting backup due to backend exiting before pg_backup_stop was called\00", align 1
@__func__.do_pg_abort_backup = private unnamed_addr constant [19 x i8] c"do_pg_abort_backup\00", align 1

; Function Attrs: nounwind uwtable
define internal void @WALInsertLockRelease() #0 {
  %1 = alloca i32, align 4
  %2 = load i8, ptr @holdingAllLocks, align 1, !range !4, !noundef !5
  %3 = trunc i8 %2 to i1
  br i1 %3, label %4, label %23

4:                                                ; preds = %0
  call void @llvm.lifetime.start.p0(i64 4, ptr %1) #16
  store i32 0, ptr %1, align 4
  br label %5

5:                                                ; preds = %19, %4
  %6 = load i32, ptr %1, align 4
  %7 = icmp slt i32 %6, 8
  br i1 %7, label %8, label %22

8:                                                ; preds = %5
  %9 = load ptr, ptr @WALInsertLocks, align 8
  %10 = load i32, ptr %1, align 4
  %11 = sext i32 %10 to i64
  %12 = getelementptr inbounds %union.WALInsertLockPadded, ptr %9, i64 %11
  %13 = getelementptr inbounds nuw %struct.WALInsertLock, ptr %12, i32 0, i32 0
  %14 = load ptr, ptr @WALInsertLocks, align 8
  %15 = load i32, ptr %1, align 4
  %16 = sext i32 %15 to i64
  %17 = getelementptr inbounds %union.WALInsertLockPadded, ptr %14, i64 %16
  %18 = getelementptr inbounds nuw %struct.WALInsertLock, ptr %17, i32 0, i32 1
  call void @LWLockReleaseClearVar(ptr noundef %13, ptr noundef %18, i64 noundef 0)
  br label %19

19:                                               ; preds = %8
  %20 = load i32, ptr %1, align 4
  %21 = add i32 %20, 1
  store i32 %21, ptr %1, align 4
  br label %5, !llvm.loop !8

22:                                               ; preds = %5
  store i8 0, ptr @holdingAllLocks, align 1
  call void @llvm.lifetime.end.p0(i64 4, ptr %1) #16
  br label %34

23:                                               ; preds = %0
  %24 = load ptr, ptr @WALInsertLocks, align 8
  %25 = load i32, ptr @MyLockNo, align 4
  %26 = sext i32 %25 to i64
  %27 = getelementptr inbounds %union.WALInsertLockPadded, ptr %24, i64 %26
  %28 = getelementptr inbounds nuw %struct.WALInsertLock, ptr %27, i32 0, i32 0
  %29 = load ptr, ptr @WALInsertLocks, align 8
  %30 = load i32, ptr @MyLockNo, align 4
  %31 = sext i32 %30 to i64
  %32 = getelementptr inbounds %union.WALInsertLockPadded, ptr %29, i64 %31
  %33 = getelementptr inbounds nuw %struct.WALInsertLock, ptr %32, i32 0, i32 1
  call void @LWLockReleaseClearVar(ptr noundef %28, ptr noundef %33, i64 noundef 0)
  br label %34

34:                                               ; preds = %23, %22
  ret void
}

; Function Attrs: nounwind uwtable
define internal void @WALInsertLockAcquireExclusive() #0 {
  %1 = alloca i32, align 4
  call void @llvm.lifetime.start.p0(i64 4, ptr %1) #16
  store i32 0, ptr %1, align 4
  br label %2

2:                                                ; preds = %22, %0
  %3 = load i32, ptr %1, align 4
  %4 = icmp slt i32 %3, 7
  br i1 %4, label %5, label %25

5:                                                ; preds = %2
  %6 = load ptr, ptr @WALInsertLocks, align 8
  %7 = load i32, ptr %1, align 4
  %8 = sext i32 %7 to i64
  %9 = getelementptr inbounds %union.WALInsertLockPadded, ptr %6, i64 %8
  %10 = getelementptr inbounds nuw %struct.WALInsertLock, ptr %9, i32 0, i32 0
  %11 = call zeroext i1 @LWLockAcquire(ptr noundef %10, i32 noundef 0)
  %12 = load ptr, ptr @WALInsertLocks, align 8
  %13 = load i32, ptr %1, align 4
  %14 = sext i32 %13 to i64
  %15 = getelementptr inbounds %union.WALInsertLockPadded, ptr %12, i64 %14
  %16 = getelementptr inbounds nuw %struct.WALInsertLock, ptr %15, i32 0, i32 0
  %17 = load ptr, ptr @WALInsertLocks, align 8
  %18 = load i32, ptr %1, align 4
  %19 = sext i32 %18 to i64
  %20 = getelementptr inbounds %union.WALInsertLockPadded, ptr %17, i64 %19
  %21 = getelementptr inbounds nuw %struct.WALInsertLock, ptr %20, i32 0, i32 1
  call void @LWLockUpdateVar(ptr noundef %16, ptr noundef %21, i64 noundef -1)
  br label %22

22:                                               ; preds = %5
  %23 = load i32, ptr %1, align 4
  %24 = add i32 %23, 1
  store i32 %24, ptr %1, align 4
  br label %2, !llvm.loop !11

25:                                               ; preds = %2
  %26 = load ptr, ptr @WALInsertLocks, align 8
  %27 = load i32, ptr %1, align 4
  %28 = sext i32 %27 to i64
  %29 = getelementptr inbounds %union.WALInsertLockPadded, ptr %26, i64 %28
  %30 = getelementptr inbounds nuw %struct.WALInsertLock, ptr %29, i32 0, i32 0
  %31 = call zeroext i1 @LWLockAcquire(ptr noundef %30, i32 noundef 0)
  store i8 1, ptr @holdingAllLocks, align 1
  call void @llvm.lifetime.end.p0(i64 4, ptr %1) #16
  ret void
}

; Function Attrs: inlinehint nounwind uwtable
define internal zeroext i1 @DatumGetBool(i64 noundef %0) #6 {
  %2 = alloca i64, align 8
  store i64 %0, ptr %2, align 8
  %3 = load i64, ptr %2, align 8
  %4 = icmp ne i64 %3, 0
  ret i1 %4
}

; Function Attrs: nounwind uwtable
define dso_local void @do_pg_abort_backup(i32 noundef %0, i64 noundef %1) #0 {
  %3 = alloca i32, align 4
  %4 = alloca i64, align 8
  %5 = alloca i8, align 1
  store i32 %0, ptr %3, align 4
  store i64 %1, ptr %4, align 8
  call void @llvm.lifetime.start.p0(i64 1, ptr %5) #16
  %6 = load i64, ptr %4, align 8
  %7 = call zeroext i1 @DatumGetBool(i64 noundef %6)
  %8 = zext i1 %7 to i8
  store i8 %8, ptr %5, align 1
  %9 = load i8, ptr %5, align 1, !range !4, !noundef !5
  %10 = trunc i8 %9 to i1
  br i1 %10, label %14, label %11

11:                                               ; preds = %2
  %12 = load i32, ptr @sessionBackupState, align 4
  %13 = icmp ne i32 %12, 0
  br i1 %13, label %14, label %34

14:                                               ; preds = %11, %2
  call void @WALInsertLockAcquireExclusive()
  %15 = load ptr, ptr @XLogCtl, align 8
  %16 = getelementptr inbounds nuw %struct.XLogCtlData, ptr %15, i32 0, i32 0
  %17 = getelementptr inbounds nuw %struct.XLogCtlInsert, ptr %16, i32 0, i32 6
  %18 = load i32, ptr %17, align 4
  %19 = add i32 %18, -1
  store i32 %19, ptr %17, align 4
  store i32 0, ptr @sessionBackupState, align 4
  call void @WALInsertLockRelease()
  %20 = load i8, ptr %5, align 1, !range !4, !noundef !5
  %21 = trunc i8 %20 to i1
  br i1 %21, label %33, label %22

22:                                               ; preds = %14
  br label %23

23:                                               ; preds = %22
  br i1 false, label %24, label %26

24:                                               ; preds = %23
  %25 = call zeroext i1 @errstart_cold(i32 noundef 19, ptr noundef null) #17
  br i1 %25, label %28, label %30

26:                                               ; preds = %23
  %27 = call zeroext i1 @errstart(i32 noundef 19, ptr noundef null)
  br i1 %27, label %28, label %30

28:                                               ; preds = %26, %24
  %29 = call i32 (ptr, ...) @errmsg(ptr noundef @.str.101)
  call void @errfinish(ptr noundef @.str.14, i32 noundef 9436, ptr noundef @__func__.do_pg_abort_backup)
  br label %30

30:                                               ; preds = %28, %26, %24
  br label %31

31:                                               ; preds = %30
  br label %32

32:                                               ; preds = %31
  br label %33

33:                                               ; preds = %32, %14
  br label %34

34:                                               ; preds = %33, %11
  call void @llvm.lifetime.end.p0(i64 1, ptr %5) #16
  ret void
}