; Function Attrs: nounwind uwtable
define dso_local void @do_pg_abort_backup(i32 %0, i64 noundef %1) #0 {
  %3 = icmp ne i64 %1, 0
  %.b = load i1, ptr @sessionBackupState, align 4
  %or.cond = select i1 %3, i1 true, i1 %.b
  br i1 %or.cond, label %.preheader, label %24

.preheader:                                       ; preds = %2, %.preheader
  %indvars.iv.i = phi i64 [ %indvars.iv.next.i, %.preheader ], [ 0, %2 ]
  %4 = load ptr, ptr @WALInsertLocks, align 8
  %5 = getelementptr inbounds nuw %union.WALInsertLockPadded, ptr %4, i64 %indvars.iv.i
  %6 = tail call zeroext i1 @LWLockAcquire(ptr noundef %5, i32 noundef 0) #26
  %7 = load ptr, ptr @WALInsertLocks, align 8
  %8 = getelementptr inbounds nuw %union.WALInsertLockPadded, ptr %7, i64 %indvars.iv.i
  %9 = getelementptr inbounds nuw i8, ptr %8, i64 16
  tail call void @LWLockUpdateVar(ptr noundef %8, ptr noundef nonnull %9, i64 noundef -1) #26
  %indvars.iv.next.i = add nuw nsw i64 %indvars.iv.i, 1
  %exitcond.not.i = icmp eq i64 %indvars.iv.next.i, 7
  br i1 %exitcond.not.i, label %WALInsertLockAcquireExclusive.exit, label %.preheader, !llvm.loop !18

WALInsertLockAcquireExclusive.exit:               ; preds = %.preheader
  %10 = load ptr, ptr @WALInsertLocks, align 8
  %11 = getelementptr inbounds nuw i8, ptr %10, i64 896
  %12 = tail call zeroext i1 @LWLockAcquire(ptr noundef nonnull %11, i32 noundef 0) #26
  store i1 true, ptr @holdingAllLocks, align 1
  %13 = load ptr, ptr @XLogCtl, align 8
  %14 = getelementptr inbounds nuw i8, ptr %13, i64 164
  %15 = load i32, ptr %14, align 4
  %16 = add i32 %15, -1
  store i32 %16, ptr %14, align 4
  store i1 false, ptr @sessionBackupState, align 4
  br label %.preheader.i

.preheader.i:                                     ; preds = %WALInsertLockAcquireExclusive.exit, %.preheader.i
  %indvars.iv.i4 = phi i64 [ %indvars.iv.next.i5, %.preheader.i ], [ 0, %WALInsertLockAcquireExclusive.exit ]
  %17 = load ptr, ptr @WALInsertLocks, align 8
  %18 = getelementptr inbounds nuw %union.WALInsertLockPadded, ptr %17, i64 %indvars.iv.i4
  %19 = getelementptr inbounds nuw i8, ptr %18, i64 16
  tail call void @LWLockReleaseClearVar(ptr noundef %18, ptr noundef nonnull %19, i64 noundef 0) #26
  %indvars.iv.next.i5 = add nuw nsw i64 %indvars.iv.i4, 1
  %exitcond.not.i6 = icmp eq i64 %indvars.iv.next.i5, 8
  br i1 %exitcond.not.i6, label %WALInsertLockRelease.exit, label %.preheader.i, !llvm.loop !8

WALInsertLockRelease.exit:                        ; preds = %.preheader.i
  store i1 false, ptr @holdingAllLocks, align 1
  br i1 %3, label %24, label %20

20:                                               ; preds = %WALInsertLockRelease.exit
  %21 = tail call zeroext i1 @errstart(i32 noundef 19, ptr noundef null) #26
  br i1 %21, label %22, label %24

22:                                               ; preds = %20
  %23 = tail call i32 (ptr, ...) @errmsg(ptr noundef nonnull @.str.101) #26
  tail call void @errfinish(ptr noundef nonnull @.str.14, i32 noundef 9436, ptr noundef nonnull @__func__.do_pg_abort_backup) #26
  br label %24

24:                                               ; preds = %WALInsertLockRelease.exit, %22, %20, %2
  ret void
}